; Function Attrs: mustprogress nofree norecurse nosync nounwind memory(readwrite, inaccessiblemem: none) uwtable
define hidden void @_ZN16XNMethodDataOopsC2ERK13GrowableArrayIPP7oopDescEb(ptr noundef nonnull align 8 dereferenceable(9) %0, ptr nocapture noundef nonnull readonly align 8 dereferenceable(24) %1, i1 noundef zeroext %2) unnamed_addr #1 align 2 {
  %4 = zext i1 %2 to i8
  %5 = load i32, ptr %1, align 8
  %6 = sext i32 %5 to i64
  store i64 %6, ptr %0, align 8
  %7 = getelementptr inbounds i8, ptr %0, i64 8
  store i8 %4, ptr %7, align 8
  %.not = icmp eq i32 %5, 0
  br i1 %.not, label %._crit_edge, label %.lr.ph

.lr.ph:                                           ; preds = %3
  %8 = getelementptr inbounds i8, ptr %1, i64 8
  %9 = ptrtoint ptr %0 to i64
  %10 = add i64 %9, 16
  %11 = inttoptr i64 %10 to ptr
  br label %12

12:                                               ; preds = %.lr.ph, %12
  %.07 = phi i64 [ 0, %.lr.ph ], [ %18, %12 ]
  %13 = load ptr, ptr %8, align 8
  %sext = shl i64 %.07, 32
  %14 = ashr exact i64 %sext, 29
  %15 = getelementptr inbounds i8, ptr %13, i64 %14
  %16 = load ptr, ptr %15, align 8
  %17 = getelementptr inbounds ptr, ptr %11, i64 %.07
  store ptr %16, ptr %17, align 8
  %18 = add nuw i64 %.07, 1
  %19 = load i64, ptr %0, align 8
  %20 = icmp ult i64 %18, %19
  br i1 %20, label %12, label %._crit_edge, !llvm.loop !6

._crit_edge:                                      ; preds = %12, %3
  ret void
}